; Function Attrs: mustprogress uwtable
define internal void @"_ZNSt17_Function_handlerIFN2cv4GMatES1_S1_EZL13typed_examplevE3$_1E9_M_invokeERKSt9_Any_dataOS1_S8_"(ptr dead_on_unwind noalias writable sret(%"class.cv::GMat") align 8 %0, ptr nonnull readnone align 8 captures(none) %1, ptr noundef nonnull align 8 captures(none) dereferenceable(16) %2, ptr noundef nonnull align 8 captures(none) dereferenceable(16) %3) #8 align 2 personality ptr @__gxx_personality_v0 {
  %5 = alloca %"class.cv::GMat", align 8
  %6 = alloca %"class.cv::GMat", align 8
  call void @llvm.lifetime.start.p0(i64 16, ptr nonnull %5), !noalias !189
  call void @llvm.lifetime.start.p0(i64 16, ptr nonnull %6), !noalias !189
  %7 = load ptr, ptr %2, align 8, !tbaa !31, !noalias !192
  store ptr %7, ptr %5, align 8, !tbaa !31, !noalias !192
  %8 = getelementptr inbounds nuw i8, ptr %5, i64 8
  %9 = getelementptr inbounds nuw i8, ptr %2, i64 8
  %10 = load ptr, ptr %9, align 8, !tbaa !17, !noalias !192
  store ptr null, ptr %9, align 8, !tbaa !17, !noalias !192
  store ptr %10, ptr %8, align 8, !tbaa !17, !noalias !192
  store ptr null, ptr %2, align 8, !tbaa !31, !noalias !192
  %11 = load ptr, ptr %3, align 8, !tbaa !31, !noalias !192
  store ptr %11, ptr %6, align 8, !tbaa !31, !noalias !192
  %12 = getelementptr inbounds nuw i8, ptr %6, i64 8
  %13 = getelementptr inbounds nuw i8, ptr %3, i64 8
  %14 = load ptr, ptr %13, align 8, !tbaa !17, !noalias !192
  store ptr null, ptr %13, align 8, !tbaa !17, !noalias !192
  store ptr %14, ptr %12, align 8, !tbaa !17, !noalias !192
  store ptr null, ptr %3, align 8, !tbaa !31, !noalias !192
  invoke void @_ZN2cvplERKNS_4GMatES2_(ptr dead_on_unwind writable sret(%"class.cv::GMat") align 8 %0, ptr noundef nonnull align 8 dereferenceable(16) %5, ptr noundef nonnull align 8 dereferenceable(16) %6)
          to label %"_ZZL13typed_examplevENK3$_1clEN2cv4GMatES1_.exit.i.i" unwind label %59

"_ZZL13typed_examplevENK3$_1clEN2cv4GMatES1_.exit.i.i": ; preds = %4
  %15 = load ptr, ptr %12, align 8, !tbaa !17, !noalias !192
  %.not.i.i.i.i.i = icmp eq ptr %15, null
  br i1 %.not.i.i.i.i.i, label %_ZN2cv4GMatD2Ev.exit.i.i, label %16

16:                                               ; preds = %"_ZZL13typed_examplevENK3$_1clEN2cv4GMatES1_.exit.i.i"
  %17 = getelementptr inbounds nuw i8, ptr %15, i64 8
  %18 = load atomic i64, ptr %17 acquire, align 8
  %19 = icmp eq i64 %18, 4294967297
  %20 = trunc i64 %18 to i32
  br i1 %19, label %21, label %29

21:                                               ; preds = %16
  store i32 0, ptr %17, align 8, !tbaa !20
  %22 = getelementptr inbounds nuw i8, ptr %15, i64 12
  store i32 0, ptr %22, align 4, !tbaa !23
  %23 = load ptr, ptr %15, align 8, !tbaa !24
  %24 = getelementptr inbounds nuw i8, ptr %23, i64 16
  %25 = load ptr, ptr %24, align 8
  call void %25(ptr noundef nonnull align 8 dereferenceable(16) %15) #28
  %26 = load ptr, ptr %15, align 8, !tbaa !24
  %27 = getelementptr inbounds nuw i8, ptr %26, i64 24
  %28 = load ptr, ptr %27, align 8
  call void %28(ptr noundef nonnull align 8 dereferenceable(16) %15) #28
  br label %_ZN2cv4GMatD2Ev.exit.i.i

29:                                               ; preds = %16
  %30 = load i8, ptr @__libc_single_threaded, align 1, !tbaa !15, !noalias !192
  %.not.i.i.i.i.i.i = icmp eq i8 %30, 0
  br i1 %.not.i.i.i.i.i.i, label %33, label %31

31:                                               ; preds = %29
  %32 = add nsw i32 %20, -1
  store i32 %32, ptr %17, align 4, !tbaa !26
  br label %_ZN9__gnu_cxx27__exchange_and_add_dispatchEPii.exit.i.i.i.i.i.i

33:                                               ; preds = %29
  %34 = atomicrmw volatile add ptr %17, i32 -1 acq_rel, align 4
  br label %_ZN9__gnu_cxx27__exchange_and_add_dispatchEPii.exit.i.i.i.i.i.i

_ZN9__gnu_cxx27__exchange_and_add_dispatchEPii.exit.i.i.i.i.i.i: ; preds = %33, %31
  %.0.i.i.i.i.i.i.i = phi i32 [ %20, %31 ], [ %34, %33 ]
  %35 = icmp eq i32 %.0.i.i.i.i.i.i.i, 1
  br i1 %35, label %36, label %_ZN2cv4GMatD2Ev.exit.i.i, !prof !27

36:                                               ; preds = %_ZN9__gnu_cxx27__exchange_and_add_dispatchEPii.exit.i.i.i.i.i.i
  call void @_ZNSt16_Sp_counted_baseILN9__gnu_cxx12_Lock_policyE2EE24_M_release_last_use_coldEv(ptr noundef nonnull align 8 dereferenceable(16) %15) #28
  br label %_ZN2cv4GMatD2Ev.exit.i.i

_ZN2cv4GMatD2Ev.exit.i.i:                         ; preds = %36, %_ZN9__gnu_cxx27__exchange_and_add_dispatchEPii.exit.i.i.i.i.i.i, %21, %"_ZZL13typed_examplevENK3$_1clEN2cv4GMatES1_.exit.i.i"
  %37 = load ptr, ptr %8, align 8, !tbaa !17, !noalias !192
  %.not.i.i.i4.i.i = icmp eq ptr %37, null
  br i1 %.not.i.i.i4.i.i, label %"_ZSt10__invoke_rIN2cv4GMatERZL13typed_examplevE3$_1JS1_S1_EENSt9enable_ifIXsr6__and_ISt6__not_ISt7is_voidIT_EESt14is_convertibleINSt15__invoke_resultIT0_JDpT1_EE4typeES7_EEE5valueES7_E4typeEOSC_DpOSD_.exit", label %38

38:                                               ; preds = %_ZN2cv4GMatD2Ev.exit.i.i
  %39 = getelementptr inbounds nuw i8, ptr %37, i64 8
  %40 = load atomic i64, ptr %39 acquire, align 8
  %41 = icmp eq i64 %40, 4294967297
  %42 = trunc i64 %40 to i32
  br i1 %41, label %43, label %51

43:                                               ; preds = %38
  store i32 0, ptr %39, align 8, !tbaa !20
  %44 = getelementptr inbounds nuw i8, ptr %37, i64 12
  store i32 0, ptr %44, align 4, !tbaa !23
  %45 = load ptr, ptr %37, align 8, !tbaa !24
  %46 = getelementptr inbounds nuw i8, ptr %45, i64 16
  %47 = load ptr, ptr %46, align 8
  call void %47(ptr noundef nonnull align 8 dereferenceable(16) %37) #28
  %48 = load ptr, ptr %37, align 8, !tbaa !24
  %49 = getelementptr inbounds nuw i8, ptr %48, i64 24
  %50 = load ptr, ptr %49, align 8
  call void %50(ptr noundef nonnull align 8 dereferenceable(16) %37) #28
  br label %"_ZSt10__invoke_rIN2cv4GMatERZL13typed_examplevE3$_1JS1_S1_EENSt9enable_ifIXsr6__and_ISt6__not_ISt7is_voidIT_EESt14is_convertibleINSt15__invoke_resultIT0_JDpT1_EE4typeES7_EEE5valueES7_E4typeEOSC_DpOSD_.exit"

51:                                               ; preds = %38
  %52 = load i8, ptr @__libc_single_threaded, align 1, !tbaa !15, !noalias !192
  %.not.i.i.i.i5.i.i = icmp eq i8 %52, 0
  br i1 %.not.i.i.i.i5.i.i, label %55, label %53

53:                                               ; preds = %51
  %54 = add nsw i32 %42, -1
  store i32 %54, ptr %39, align 4, !tbaa !26
  br label %_ZN9__gnu_cxx27__exchange_and_add_dispatchEPii.exit.i.i.i.i6.i.i

55:                                               ; preds = %51
  %56 = atomicrmw volatile add ptr %39, i32 -1 acq_rel, align 4
  br label %_ZN9__gnu_cxx27__exchange_and_add_dispatchEPii.exit.i.i.i.i6.i.i

_ZN9__gnu_cxx27__exchange_and_add_dispatchEPii.exit.i.i.i.i6.i.i: ; preds = %55, %53
  %.0.i.i.i.i.i7.i.i = phi i32 [ %42, %53 ], [ %56, %55 ]
  %57 = icmp eq i32 %.0.i.i.i.i.i7.i.i, 1
  br i1 %57, label %58, label %"_ZSt10__invoke_rIN2cv4GMatERZL13typed_examplevE3$_1JS1_S1_EENSt9enable_ifIXsr6__and_ISt6__not_ISt7is_voidIT_EESt14is_convertibleINSt15__invoke_resultIT0_JDpT1_EE4typeES7_EEE5valueES7_E4typeEOSC_DpOSD_.exit", !prof !27

58:                                               ; preds = %_ZN9__gnu_cxx27__exchange_and_add_dispatchEPii.exit.i.i.i.i6.i.i
  call void @_ZNSt16_Sp_counted_baseILN9__gnu_cxx12_Lock_policyE2EE24_M_release_last_use_coldEv(ptr noundef nonnull align 8 dereferenceable(16) %37) #28
  br label %"_ZSt10__invoke_rIN2cv4GMatERZL13typed_examplevE3$_1JS1_S1_EENSt9enable_ifIXsr6__and_ISt6__not_ISt7is_voidIT_EESt14is_convertibleINSt15__invoke_resultIT0_JDpT1_EE4typeES7_EEE5valueES7_E4typeEOSC_DpOSD_.exit"

59:                                               ; preds = %4
  %60 = landingpad { ptr, i32 }
          cleanup
  call void @_ZN2cv4GMatD2Ev(ptr noundef nonnull align 8 dereferenceable(16) %6) #28
  call void @_ZN2cv4GMatD2Ev(ptr noundef nonnull align 8 dereferenceable(16) %5) #28
  resume { ptr, i32 } %60

"_ZSt10__invoke_rIN2cv4GMatERZL13typed_examplevE3$_1JS1_S1_EENSt9enable_ifIXsr6__and_ISt6__not_ISt7is_voidIT_EESt14is_convertibleINSt15__invoke_resultIT0_JDpT1_EE4typeES7_EEE5valueES7_E4typeEOSC_DpOSD_.exit": ; preds = %_ZN2cv4GMatD2Ev.exit.i.i, %43, %_ZN9__gnu_cxx27__exchange_and_add_dispatchEPii.exit.i.i.i.i6.i.i, %58
  call void @llvm.lifetime.end.p0(i64 16, ptr nonnull %5), !noalias !189
  call void @llvm.lifetime.end.p0(i64 16, ptr nonnull %6), !noalias !189
  ret void
}